target datalayout = "e-m:e-p270:32:32-p271:32:32-p272:64:64-i64:64-i128:128-f80:128-n8:16:32:64-S128"
target triple = "x86_64-pc-linux-gnu"

%struct.hsts = type { %struct.Curl_llist, ptr, i32 }
%struct.Curl_llist = type { ptr, ptr, ptr, i64 }

@Curl_ccalloc = external global ptr, align 8

; Function Attrs: nounwind uwtable
define hidden ptr @Curl_hsts_init() #0 {
  %1 = alloca ptr, align 8
  call void @llvm.lifetime.start.p0(i64 8, ptr %1) #6
  %2 = load ptr, ptr @Curl_ccalloc, align 8, !tbaa !3
  %3 = call ptr %2(i64 noundef 1, i64 noundef 48)
  store ptr %3, ptr %1, align 8, !tbaa !7
  %4 = load ptr, ptr %1, align 8, !tbaa !7
  %5 = icmp ne ptr %4, null
  br i1 %5, label %6, label %9

6:                                                ; preds = %0
  %7 = load ptr, ptr %1, align 8, !tbaa !7
  %8 = getelementptr inbounds nuw %struct.hsts, ptr %7, i32 0, i32 0
  call void @Curl_llist_init(ptr noundef %8, ptr noundef null)
  br label %9

9:                                                ; preds = %6, %0
  %10 = load ptr, ptr %1, align 8, !tbaa !7
  call void @llvm.lifetime.end.p0(i64 8, ptr %1) #6
  ret ptr %10
}